(dp0
S'22504'
p1
(F37.763552
F-76.72961
tp2
sS'22507'
p3
(F37.762848
F-76.49749
tp4
sS'23838'
p5
(F37.328232
F-77.61364
tp6
sS'22469'
p7
(F38.093956
F-76.64055
tp8
sS'22503'
p9
(F37.732696
F-76.51554
tp10
sS'22508'
p11
(F38.326624
F-77.76987
tp12
sS'22509'
p13
(F38.104829
F-77.0743
tp14
sS'22460'
p15
(F37.858952
F-76.63263
tp16
sS'23442'
p17
(F37.887538
F-75.53645
tp18
sS'22664'
p19
(F38.881558
F-78.51586
tp20
sS'23440'
p21
(F37.847652
F-75.99404
tp22
sS'23441'
p23
(F37.711442
F-75.70044
tp24
sS'22660'
p25
(F38.949013
F-78.43921
tp26
sS'22663'
p27
(F39.045019
F-78.12417
tp28
sS'23693'
p29
(F37.112915
F-76.43591
tp30
sS'23692'
p31
(F37.178417
F-76.46751
tp32
sS'23691'
p33
(F37.257932
F-76.56076
tp34
sS'23690'
p35
(F37.227904
F-76.51278
tp36
sS'24168'
p37
(F36.734651
F-79.94572
tp38
sS'23696'
p39
(F37.191262
F-76.42135
tp40
sS'24165'
p41
(F36.590431
F-80.03589
tp42
sS'24167'
p43
(F37.240021
F-80.73083
tp44
sS'24161'
p45
(F36.985629
F-79.53939
tp46
sS'24162'
p47
(F37.14374
F-80.26233
tp48
sS'24091'
p49
(F36.910051
F-80.30871
tp50
sS'22180'
p51
(F38.894711
F-77.25337
tp52
sS'22181'
p53
(F38.896361
F-77.29102
tp54
sS'22182'
p55
(F38.922478
F-77.2566
tp56
sS'24651'
p57
(F37.113004
F-81.50326
tp58
sS'24656'
p59
(F37.198005
F-82.12193
tp60
sS'24657'
p61
(F37.226416
F-81.86739
tp62
sS'23513'
p63
(F36.888147
F-76.23909
tp64
sS'24151'
p65
(F36.980013
F-79.88027
tp66
sS'22003'
p67
(F38.830345
F-77.21387
tp68
sS'23517'
p69
(F36.870197
F-76.29271
tp70
sS'24150'
p71
(F37.351691
F-80.67726
tp72
sS'23846'
p73
(F37.064244
F-76.82637
tp74
sS'23847'
p75
(F36.68627
F-77.56121
tp76
sS'23844'
p77
(F36.688788
F-77.31072
tp78
sS'23845'
p79
(F36.554164
F-78.01408
tp80
sS'23842'
p81
(F37.126708
F-77.23281
tp82
sS'23843'
p83
(F36.848712
F-77.80682
tp84
sS'23840'
p85
(F37.066833
F-77.6675
tp86
sS'23841'
p87
(F37.055849
F-77.56349
tp88
sS'23960'
p89
(F37.310203
F-78.55359
tp90
sS'23963'
p91
(F37.197072
F-78.81694
tp92
sS'23962'
p93
(F37.017706
F-78.73668
tp94
sS'23964'
p95
(F36.780021
F-78.62102
tp96
sS'23967'
p97
(F36.913228
F-78.63611
tp98
sS'23966'
p99
(F37.284087
F-78.27559
tp100
sS'24093'
p101
(F37.377877
F-80.85658
tp102
sS'24015'
p103
(F37.258787
F-79.97816
tp104
sS'24554'
p105
(F37.142894
F-79.05412
tp106
sS'24139'
p107
(F37.010279
F-79.47217
tp108
sS'24017'
p109
(F37.290886
F-79.98256
tp110
sS'225HH'
p111
(F37.828341
F-76.6752
tp112
sS'24556'
p113
(F37.361512
F-79.3981
tp114
sS'24523'
p115
(F37.339184
F-79.52839
tp116
sS'24011'
p117
(F37.270637
F-79.94155
tp118
sS'22715'
p119
(F38.414359
F-78.18321
tp120
sS'22714'
p121
(F38.512989
F-77.89529
tp122
sS'22716'
p123
(F38.627135
F-78.11341
tp124
sS'22711'
p125
(F38.476275
F-78.2729
tp126
sS'24271'
p127
(F36.741128
F-82.41823
tp128
sS'22713'
p129
(F38.549388
F-78.15309
tp130
sS'22712'
p131
(F38.5593
F-77.75728
tp132
sS'24577'
p133
(F36.940538
F-78.98017
tp134
sS'236HH'
p135
(F37.050585
F-76.32446
tp136
sS'24013'
p137
(F37.267137
F-79.92645
tp138
sS'22719'
p139
(F38.527816
F-78.25117
tp140
sS'22718'
p141
(F38.493501
F-77.82067
tp142
sS'22060'
p143
(F38.71299
F-77.16615
tp144
sS'22485'
p145
(F38.277837
F-77.1642
tp146
sS'22480'
p147
(F37.66871
F-76.41038
tp148
sS'22482'
p149
(F37.733327
F-76.34389
tp150
sS'23308'
p151
(F37.828492
F-75.61896
tp152
sS'24374'
p153
(F36.813383
F-81.19791
tp154
sS'24377'
p155
(F37.000956
F-81.54797
tp156
sS'22488'
p157
(F38.046358
F-76.57924
tp158
sS'228XX'
p159
(F38.50971
F-79.04893
tp160
sS'24316'
p161
(F36.937195
F-81.67617
tp162
sS'24620'
p163
(F37.409883
F-82.02317
tp164
sS'24279'
p165
(F37.10297
F-82.59626
tp166
sS'23662'
p167
(F37.131237
F-76.38089
tp168
sS'23663'
p169
(F37.031474
F-76.31637
tp170
sS'23661'
p171
(F37.005814
F-76.38316
tp172
sS'23666'
p173
(F37.050946
F-76.40711
tp174
sS'23664'
p175
(F37.056778
F-76.29373
tp176
sS'23665'
p177
(F37.098317
F-76.4196
tp178
sS'23669'
p179
(F37.037946
F-76.34415
tp180
sS'239HH'
p181
(F36.646732
F-78.44036
tp182
sS'23091'
p183
(F37.638259
F-76.82858
tp184
sS'22901'
p185
(F38.072402
F-78.50149
tp186
sS'22902'
p187
(F38.00847
F-78.47803
tp188
sS'22903'
p189
(F38.026342
F-78.5348
tp190
sS'245HH'
p191
(F37.043316
F-79.03338
tp192
sS'24592'
p193
(F36.701855
F-78.92008
tp194
sS'23064'
p195
(F37.50519
F-76.29784
tp196
sS'23065'
p197
(F37.801783
F-77.92431
tp198
sS'23066'
p199
(F37.501358
F-76.28453
tp200
sS'23060'
p201
(F37.661647
F-77.52632
tp202
sS'23061'
p203
(F37.414991
F-76.52959
tp204
sS'23062'
p205
(F37.257466
F-76.49661
tp206
sS'23063'
p207
(F37.69536
F-77.99793
tp208
sS'24281'
p209
(F36.65364
F-83.34736
tp210
sS'23146'
p211
(F37.725675
F-77.69002
tp212
sS'24283'
p213
(F36.943316
F-82.33154
tp214
sS'231HH'
p215
(F37.542583
F-76.86709
tp216
sS'23068'
p217
(F37.492529
F-76.33636
tp218
sS'23069'
p219
(F37.753904
F-77.33963
tp220
sS'23141'
p221
(F37.506369
F-77.15127
tp222
sS'23140'
p223
(F37.438569
F-77.03578
tp224
sS'22548'
p225
(F37.825956
F-76.70563
tp226
sS'22620'
p227
(F39.061499
F-78.03693
tp228
sS'23325'
p229
(F36.814897
F-76.23848
tp230
sS'23324'
p231
(F36.805717
F-76.27126
tp232
sS'22625'
p233
(F39.345906
F-78.30975
tp234
sS'22624'
p235
(F39.26582
F-78.08496
tp236
sS'22627'
p237
(F38.765004
F-78.0948
tp238
sS'22626'
p239
(F38.980286
F-78.4011
tp240
sS'23899'
p241
(F37.227291
F-76.96545
tp242
sS'23487'
p243
(F36.828408
F-76.73506
tp244
sS'22542'
p245
(F38.296355
F-77.88379
tp246
sS'22546'
p247
(F37.95969
F-77.47733
tp248
sS'24120'
p249
(F36.720001
F-80.41975
tp250
sS'24121'
p251
(F37.145705
F-79.64786
tp252
sS'20139'
p253
(F38.651558
F-77.70361
tp254
sS'20138'
p255
(F38.630238
F-77.67295
tp256
sS'24124'
p257
(F37.331818
F-80.80847
tp258
sS'23456'
p259
(F36.762459
F-76.06139
tp260
sS'24127'
p261
(F37.505033
F-80.17302
tp262
sS'24083'
p263
(F37.407301
F-79.91761
tp264
sS'20132'
p265
(F39.146479
F-77.72798
tp266
sS'20130'
p267
(F39.008532
F-77.94907
tp268
sS'20137'
p269
(F38.810629
F-77.7057
tp270
sS'20136'
p271
(F38.7475
F-77.56917
tp272
sS'20135'
p273
(F39.080229
F-77.87192
tp274
sS'24084'
p275
(F37.107273
F-80.67384
tp276
sS'24171'
p277
(F36.655575
F-80.23909
tp278
sS'22974'
p279
(F37.959376
F-78.26353
tp280
sS'241HH'
p281
(F37.402466
F-79.96406
tp282
sS'22976'
p283
(F37.840892
F-79.02459
tp284
sS'22971'
p285
(F37.74747
F-78.80233
tp286
sS'22973'
p287
(F38.301191
F-78.46396
tp288
sS'22972'
p289
(F38.214023
F-78.21596
tp290
sS'22302'
p291
(F38.829512
F-77.08204
tp292
sS'22303'
p293
(F38.792863
F-77.07964
tp294
sS'24597'
p295
(F36.782331
F-79.1237
tp296
sS'22301'
p297
(F38.819863
F-77.05854
tp298
sS'22306'
p299
(F38.757214
F-77.08666
tp300
sS'22307'
p301
(F38.774863
F-77.0593
tp302
sS'22304'
p303
(F38.813013
F-77.11667
tp304
sS'22305'
p305
(F38.836779
F-77.06418
tp306
sS'22308'
p307
(F38.728464
F-77.05701
tp308
sS'22309'
p309
(F38.725214
F-77.10734
tp310
sS'24450'
p311
(F37.794344
F-79.47658
tp312
sS'24598'
p313
(F36.592597
F-78.78207
tp314
sS'22435'
p315
(F37.996825
F-76.56435
tp316
sS'22436'
p317
(F38.069014
F-77.09611
tp318
sS'22437'
p319
(F37.790946
F-76.78764
tp320
sS'22432'
p321
(F37.860549
F-76.35637
tp322
sS'22433'
p323
(F38.343691
F-77.85964
tp324
sS'22438'
p325
(F38.041706
F-77.005
tp326
sS'201HH'
p327
(F38.702502
F-77.43369
tp328
sS'23433'
p329
(F36.906805
F-76.49899
tp330
sS'23432'
p331
(F36.871628
F-76.56063
tp332
sS'23430'
p333
(F36.978861
F-76.63973
tp334
sS'22539'
p335
(F37.854233
F-76.27848
tp336
sS'22538'
p337
(F38.22172
F-77.26648
tp338
sS'23435'
p339
(F36.84882
F-76.46521
tp340
sS'23434'
p341
(F36.735893
F-76.59656
tp342
sS'22535'
p343
(F38.164219
F-77.18217
tp344
sS'22534'
p345
(F38.08157
F-77.66795
tp346
sS'23438'
p347
(F36.578692
F-76.70129
tp348
sS'22124'
p349
(F38.88619
F-77.32402
tp350
sS'22125'
p351
(F38.683295
F-77.26044
tp352
sS'24018'
p353
(F37.229786
F-80.02477
tp354
sS'24019'
p355
(F37.341428
F-79.95049
tp356
sS'24153'
p357
(F37.288807
F-80.07821
tp358
sS'24330'
p359
(F36.721913
F-81.00535
tp360
sS'24014'
p361
(F37.236753
F-79.93549
tp362
sS'23803'
p363
(F37.21695
F-77.43063
tp364
sS'24016'
p365
(F37.272186
F-79.95321
tp366
sS'23801'
p367
(F37.241173
F-77.34845
tp368
sS'23181'
p369
(F37.559878
F-76.83018
tp370
sS'24012'
p371
(F37.305769
F-79.92767
tp372
sS'23805'
p373
(F37.174217
F-77.39008
tp374
sS'24622'
p375
(F37.214471
F-81.78967
tp376
sS'23703'
p377
(F36.867248
F-76.38232
tp378
sS'23180'
p379
(F37.710586
F-76.63179
tp380
sS'24624'
p381
(F37.204272
F-81.97936
tp382
sS'23301'
p383
(F37.713561
F-75.67108
tp384
sS'24628'
p385
(F37.308652
F-82.18593
tp386
sS'23605'
p387
(F37.019453
F-76.43651
tp388
sS'23184'
p389
(F37.285188
F-76.5298
tp390
sS'24239'
p391
(F37.107474
F-82.12413
tp392
sS'24333'
p393
(F36.649548
F-80.92683
tp394
sS'23359'
p395
(F37.876357
F-75.59686
tp396
sS'24230'
p397
(F36.952634
F-82.46657
tp398
sS'233HH'
p399
(F37.292417
F-75.91408
tp400
sS'24236'
p401
(F36.624632
F-81.76732
tp402
sS'24237'
p403
(F37.001752
F-82.28089
tp404
sS'23936'
p405
(F37.529284
F-78.49082
tp406
sS'23937'
p407
(F36.958048
F-78.53403
tp408
sS'23934'
p409
(F37.164981
F-78.62592
tp410
sS'23221'
p411
(F37.557626
F-77.48844
tp412
sS'23930'
p413
(F37.173493
F-78.11236
tp414
sS'24442'
p415
(F38.345202
F-79.38497
tp416
sS'23938'
p417
(F36.909504
F-78.00646
tp418
sS'23939'
p419
(F37.312972
F-78.77203
tp420
sS'223HH'
p421
(F38.725143
F-77.07967
tp422
sS'24440'
p423
(F37.996542
F-79.15354
tp424
sS'23303'
p425
(F37.892445
F-75.51107
tp426
sS'23059'
p427
(F37.686152
F-77.53651
tp428
sS'23509'
p429
(F36.880297
F-76.2596
tp430
sS'23508'
p431
(F36.886447
F-76.30065
tp432
sS'23055'
p433
(F37.782109
F-78.23472
tp434
sS'23608'
p435
(F37.151315
F-76.54812
tp436
sS'23505'
p437
(F36.913147
F-76.28444
tp438
sS'23056'
p439
(F37.383629
F-76.36167
tp440
sS'23503'
p441
(F36.942947
F-76.2547
tp442
sS'23050'
p443
(F37.490365
F-76.44118
tp444
sS'24526'
p445
(F37.528701
F-79.39812
tp446
sS'24527'
p447
(F36.725028
F-79.35877
tp448
sS'24520'
p449
(F36.561396
F-79.05268
tp450
sS'24521'
p451
(F37.616606
F-79.08763
tp452
sS'24522'
p453
(F37.374688
F-78.80585
tp454
sS'244XX'
p455
(F38.229104
F-78.72704
tp456
sS'24487'
p457
(F38.197757
F-79.57766
tp458
sS'24486'
p459
(F38.290722
F-78.92423
tp460
sS'24485'
p461
(F38.270442
F-79.33402
tp462
sS'24484'
p463
(F38.103122
F-79.81478
tp464
sS'24483'
p465
(F37.819652
F-79.21508
tp466
sS'24482'
p467
(F38.19958
F-78.99553
tp468
sS'24579'
p469
(F37.597531
F-79.50659
tp470
sS'24248'
p471
(F36.62928
F-83.48322
tp472
sS'24245'
p473
(F36.844539
F-82.49147
tp474
sS'24244'
p475
(F36.70122
F-82.79538
tp476
sS'24243'
p477
(F36.780481
F-82.94428
tp478
sS'24085'
p479
(F37.671394
F-79.81681
tp480
sS'23021'
p481
(F37.3946
F-76.36571
tp482
sS'23022'
p483
(F37.728067
F-78.26865
tp484
sS'23023'
p485
(F37.777938
F-76.95055
tp486
sS'23024'
p487
(F37.961187
F-77.76824
tp488
sS'23025'
p489
(F37.422209
F-76.37304
tp490
sS'23027'
p491
(F37.653694
F-78.11902
tp492
sS'23488'
p493
(F37.952168
F-75.59681
tp494
sS'20176'
p495
(F39.138978
F-77.54519
tp496
sS'20175'
p497
(F39.080037
F-77.58025
tp498
sS'20171'
p499
(F38.931479
F-77.40085
tp500
sS'20170'
p501
(F38.977109
F-77.38527
tp502
sS'22931'
p503
(F37.890917
F-78.70343
tp504
sS'22932'
p505
(F38.116217
F-78.71396
tp506
sS'22935'
p507
(F38.254105
F-78.56548
tp508
sS'22937'
p509
(F37.79922
F-78.61263
tp510
sS'22936'
p511
(F38.150083
F-78.47627
tp512
sS'22830'
p513
(F38.637545
F-78.95205
tp514
sS'22831'
p515
(F38.584516
F-79.04328
tp516
sS'22832'
p517
(F38.453741
F-78.78234
tp518
sS'22834'
p519
(F38.544652
F-78.86564
tp520
sS'22835'
p521
(F38.665615
F-78.45621
tp522
sS'24412'
p523
(F38.054111
F-79.84575
tp524
sS'24413'
p525
(F38.521373
F-79.58361
tp526
sS'24415'
p527
(F37.929347
F-79.31644
tp528
sS'24416'
p529
(F37.74078
F-79.35038
tp530
sS'24138'
p531
(F37.048647
F-80.32048
tp532
sS'23115'
p533
(F37.826347
F-76.87751
tp534
sS'23116'
p535
(F37.662559
F-77.36778
tp536
sS'23117'
p537
(F38.007186
F-77.86809
tp538
sS'23110'
p539
(F37.571544
F-76.78066
tp540
sS'23111'
p541
(F37.605641
F-77.31536
tp542
sS'23112'
p543
(F37.427988
F-77.64868
tp544
sS'23113'
p545
(F37.51338
F-77.64165
tp546
sS'23294'
p547
(F37.633316
F-77.54775
tp548
sS'23119'
p549
(F37.451894
F-76.2904
tp550
sS'22572'
p551
(F37.957869
F-76.75725
tp552
sS'22576'
p553
(F37.680124
F-76.44242
tp554
sS'22579'
p555
(F37.807268
F-76.31275
tp556
sS'22578'
p557
(F37.64424
F-76.36034
tp558
sS'22473'
p559
(F37.892668
F-76.36307
tp560
sS'23306'
p561
(F37.560093
F-75.86182
tp562
sS'22476'
p563
(F38.036866
F-77.08033
tp564
sS'24053'
p565
(F36.618824
F-80.53102
tp566
sS'24054'
p567
(F36.677075
F-79.70604
tp568
sS'23651'
p569
(F37.002997
F-76.32039
tp570
sS'24058'
p571
(F37.189876
F-80.59761
tp572
sS'24059'
p573
(F37.146244
F-80.12562
tp574
sS'24431'
p575
(F38.167914
F-78.84222
tp576
sS'22849'
p577
(F38.49696
F-78.61997
tp578
sS'22845'
p579
(F38.788499
F-78.81488
tp580
sS'22844'
p581
(F38.652274
F-78.66417
tp582
sS'22847'
p583
(F38.704494
F-78.70088
tp584
sS'22846'
p585
(F38.371616
F-78.79742
tp586
sS'22841'
p587
(F38.358334
F-78.90667
tp588
sS'22840'
p589
(F38.387721
F-78.73452
tp590
sS'22843'
p591
(F38.337507
F-79.11629
tp592
sS'22842'
p593
(F38.772409
F-78.69461
tp594
sS'24465'
p595
(F38.374628
F-79.63611
tp596
sS'23876'
p597
(F36.951449
F-77.82402
tp598
sS'24467'
p599
(F38.258308
F-78.95941
tp600
sS'24574'
p601
(F37.576208
F-79.26133
tp602
sS'24460'
p603
(F38.015153
F-79.65065
tp604
sS'24463'
p605
(F38.064112
F-79.10979
tp606
sS'22153'
p607
(F38.745164
F-77.23535
tp608
sS'22152'
p609
(F38.775716
F-77.23131
tp610
sS'22151'
p611
(F38.803813
F-77.20821
tp612
sS'22150'
p613
(F38.778243
F-77.18562
tp614
sS'22408'
p615
(F38.236023
F-77.46111
tp616
sS'22405'
p617
(F38.317636
F-77.43297
tp618
sS'22407'
p619
(F38.271028
F-77.5559
tp620
sS'22406'
p621
(F38.387261
F-77.54676
tp622
sS'22401'
p623
(F38.301829
F-77.47077
tp624
sS'22015'
p625
(F38.788646
F-77.27888
tp626
sS'20194'
p627
(F38.977362
F-77.34658
tp628
sS'20197'
p629
(F39.191333
F-77.63118
tp630
sS'20191'
p631
(F38.934709
F-77.3469
tp632
sS'20190'
p633
(F38.959673
F-77.3462
tp634
sS'23875'
p635
(F37.235949
F-77.30259
tp636
sS'23874'
p637
(F36.610636
F-77.10269
tp638
sS'23879'
p639
(F36.584448
F-77.58854
tp640
sS'23878'
p641
(F36.822024
F-77.02404
tp642
sS'23976'
p643
(F36.848612
F-78.59064
tp644
sS'20198'
p645
(F38.889848
F-77.75907
tp646
sS'23974'
p647
(F36.987595
F-78.23285
tp648
sS'24572'
p649
(F37.461272
F-79.09364
tp650
sS'23507'
p651
(F36.864047
F-76.29947
tp652
sS'23504'
p653
(F36.859362
F-76.27028
tp654
sS'24571'
p655
(F37.133274
F-79.37324
tp656
sS'23502'
p657
(F36.855247
F-76.21233
tp658
sS'24201'
p659
(F36.606582
F-82.18087
tp660
sS'24569'
p661
(F37.041512
F-79.1278
tp662
sS'24202'
p663
(F36.645419
F-82.18137
tp664
sS'22701'
p665
(F38.459521
F-77.99875
tp666
sS'23952'
p667
(F36.930088
F-78.29215
tp668
sS'24563'
p669
(F37.071568
F-79.2923
tp670
sS'24565'
p671
(F36.842686
F-79.19748
tp672
sS'24566'
p673
(F36.726236
F-79.26279
tp674
sS'22709'
p675
(F38.312548
F-78.23622
tp676
sS'23459'
p677
(F36.926647
F-76.02058
tp678
sS'24368'
p679
(F36.889364
F-81.28162
tp680
sS'23821'
p681
(F36.87229
F-77.91125
tp682
sS'24366'
p683
(F37.261609
F-81.10659
tp684
sS'24363'
p685
(F36.597486
F-81.37604
tp686
sS'24360'
p687
(F36.933981
F-80.92897
tp688
sS'24361'
p689
(F36.763059
F-81.84774
tp690
sS'23129'
p691
(F37.698646
F-77.77111
tp692
sS'23128'
p693
(F37.456363
F-76.43298
tp694
sS'23125'
p695
(F37.342721
F-76.27989
tp696
sS'23124'
p697
(F37.545276
F-77.06664
tp698
sS'23126'
p699
(F37.902954
F-77.14586
tp700
sS'23120'
p701
(F37.422868
F-77.7813
tp702
sS'23123'
p703
(F37.663039
F-78.2868
tp704
sS'23828'
p705
(F36.582188
F-77.27759
tp706
sS'23089'
p707
(F37.435153
F-76.90719
tp708
sS'23083'
p709
(F37.303726
F-78.11349
tp710
sS'23086'
p711
(F37.64375
F-77.02508
tp712
sS'23084'
p713
(F37.90198
F-78.09647
tp714
sS'23085'
p715
(F37.711368
F-76.85843
tp716
sS'24528'
p717
(F37.079385
F-78.90765
tp718
sS'24517'
p719
(F37.127543
F-79.27409
tp720
sS'24529'
p721
(F36.631531
F-78.63806
tp722
sS'23011'
p723
(F37.478184
F-76.81384
tp724
sS'24228'
p725
(F37.153509
F-82.44936
tp726
sS'23015'
p727
(F37.931011
F-77.64296
tp728
sS'23457'
p729
(F36.600219
F-76.03592
tp730
sS'23150'
p731
(F37.517804
F-77.28678
tp732
sS'24293'
p733
(F36.979817
F-82.56963
tp734
sS'24290'
p735
(F36.617348
F-82.5666
tp736
sS'23153'
p737
(F37.787745
F-77.96916
tp738
sS'23156'
p739
(F37.501267
F-76.72389
tp740
sS'24613'
p741
(F37.273973
F-81.31688
tp742
sS'20124'
p743
(F38.797424
F-77.39237
tp744
sS'23883'
p745
(F37.14051
F-76.74342
tp746
sS'22630'
p747
(F38.926615
F-78.17499
tp748
sS'23881'
p749
(F37.181764
F-77.0026
tp750
sS'20120'
p751
(F38.851221
F-77.44998
tp752
sS'20121'
p753
(F38.82571
F-77.43964
tp754
sS'23336'
p755
(F37.934673
F-75.3678
tp756
sS'23337'
p757
(F37.931216
F-75.47192
tp758
sS'22203'
p759
(F38.874979
F-77.11455
tp760
sS'22202'
p761
(F38.856795
F-77.05628
tp762
sS'22201'
p763
(F38.885337
F-77.09512
tp764
sS'22639'
p765
(F38.814086
F-78.01898
tp766
sS'22207'
p767
(F38.903697
F-77.12749
tp768
sS'20129'
p769
(F39.149032
F-77.61471
tp770
sS'22205'
p771
(F38.88275
F-77.13999
tp772
sS'22204'
p773
(F38.860247
F-77.09627
tp774
sS'221HH'
p775
(F38.685915
F-77.26308
tp776
sS'24292'
p777
(F36.59565
F-81.59154
tp778
sS'22802'
p779
(F38.477752
F-78.86302
tp780
sS'23231'
p781
(F37.482896
F-77.36304
tp782
sS'23230'
p783
(F37.580346
F-77.48831
tp784
sS'23233'
p785
(F37.622465
F-77.61965
tp786
sS'23235'
p787
(F37.522514
F-77.56565
tp788
sS'23234'
p789
(F37.457341
F-77.4658
tp790
sS'23237'
p791
(F37.406204
F-77.4533
tp792
sS'23236'
p793
(F37.475798
F-77.58235
tp794
sS'232HH'
p795
(F37.528931
F-77.47462
tp796
sS'22968'
p797
(F38.233717
F-78.41009
tp798
sS'22969'
p799
(F37.792343
F-78.69417
tp800
sS'22967'
p801
(F37.79151
F-78.98961
tp802
sS'22964'
p803
(F37.725074
F-78.99245
tp804
sS'22963'
p805
(F37.871021
F-78.30837
tp806
sS'22960'
p807
(F38.231526
F-78.07923
tp808
sS'24586'
p809
(F36.595244
F-79.28647
tp810
sS'24277'
p811
(F36.756705
F-83.04178
tp812
sS'24580'
p813
(F36.589704
F-78.66151
tp814
sS'24581'
p815
(F37.644171
F-78.79447
tp816
sS'24421'
p817
(F38.252683
F-79.17339
tp818
sS'24270'
p819
(F36.720381
F-82.26093
tp820
sS'24422'
p821
(F37.821088
F-79.79619
tp822
sS'24179'
p823
(F37.276218
F-79.8524
tp824
sS'24588'
p825
(F37.268024
F-79.11686
tp826
sS'24426'
p827
(F37.772399
F-80.02705
tp828
sS'23882'
p829
(F36.928972
F-77.41971
tp830
sS'22443'
p831
(F38.22653
F-76.97442
tp832
sS'24272'
p833
(F37.008665
F-82.35244
tp834
sS'227XX'
p835
(F38.539374
F-78.33806
tp836
sS'24095'
p837
(F37.21556
F-79.73922
tp838
sS'22448'
p839
(F38.340124
F-77.03273
tp840
sS'238XX'
p841
(F37.11394
F-77.89926
tp842
sS'24273'
p843
(F36.942047
F-82.63138
tp844
sS'22209'
p845
(F38.893241
F-77.07453
tp846
sS'23837'
p847
(F36.740306
F-77.07132
tp848
sS'22643'
p849
(F38.905106
F-77.98948
tp850
sS'23347'
p851
(F37.353286
F-75.94203
tp852
sS'23834'
p853
(F37.265403
F-77.40438
tp854
sS'23833'
p855
(F37.197024
F-77.66932
tp856
sS'23832'
p857
(F37.405699
F-77.5838
tp858
sS'23831'
p859
(F37.350999
F-77.43959
tp860
sS'22529'
p861
(F38.006793
F-76.68218
tp862
sS'24090'
p863
(F37.512912
F-79.87046
tp864
sS'23426'
p865
(F37.93359
F-75.67692
tp866
sS'23427'
p867
(F37.92358
F-75.72178
tp868
sS'23420'
p869
(F37.589068
F-75.79947
tp870
sS'20117'
p871
(F38.983902
F-77.74903
tp872
sS'22520'
p873
(F38.129822
F-76.76155
tp874
sS'22637'
p875
(F39.247386
F-78.35444
tp876
sS'24069'
p877
(F36.586545
F-79.64194
tp878
sS'24147'
p879
(F37.38389
F-80.81734
tp880
sS'23302'
p881
(F37.870022
F-75.53554
tp882
sS'24142'
p883
(F37.138427
F-80.55031
tp884
sS'24092'
p885
(F37.014685
F-79.75335
tp886
sS'24141'
p887
(F37.11979
F-80.57325
tp888
sS'24060'
p889
(F37.232027
F-80.42127
tp890
sS'23885'
p891
(F37.191579
F-77.56682
tp892
sS'24065'
p893
(F37.116716
F-79.95528
tp894
sS'24064'
p895
(F37.373117
F-79.79043
tp896
sS'24067'
p897
(F37.010772
F-80.08111
tp898
sS'22646'
p899
(F39.069682
F-78.03752
tp900
sS'24343'
p901
(F36.750353
F-80.68706
tp902
sS'23307'
p903
(F37.434719
F-75.87767
tp904
sS'24634'
p905
(F37.250363
F-81.89766
tp906
sS'24635'
p907
(F37.305821
F-81.34697
tp908
sS'20112'
p909
(F38.685117
F-77.44796
tp910
sS'24630'
p911
(F37.155621
F-81.49787
tp912
sS'23888'
p913
(F36.963354
F-76.98127
tp914
sS'23889'
p915
(F36.912369
F-77.75239
tp916
sS'23707'
p917
(F36.835215
F-76.3457
tp918
sS'244HH'
p919
(F38.324009
F-78.91265
tp920
sS'22206'
p921
(F38.843466
F-77.08973
tp922
sS'24322'
p923
(F36.820139
F-81.11128
tp924
sS'24323'
p925
(F36.88091
F-81.1992
tp926
sS'22749'
p927
(F38.629058
F-78.18057
tp928
sS'24326'
p929
(F36.729236
F-81.2001
tp930
sS'22066'
p931
(F39.003809
F-77.30165
tp932
sS'24324'
p933
(F36.973028
F-80.79309
tp934
sS'24325'
p935
(F36.801489
F-80.60492
tp936
sS'22742'
p937
(F38.456916
F-77.7009
tp938
sS'22743'
p939
(F38.509556
F-78.33721
tp940
sS'22740'
p941
(F38.636896
F-78.24
tp942
sS'22741'
p943
(F38.442247
F-77.8962
tp944
sS'22746'
p945
(F38.638635
F-78.03061
tp946
sS'22747'
p947
(F38.725801
F-78.16767
tp948
sS'24378'
p949
(F36.684567
F-81.43411
tp950
sS'22801'
p951
(F38.426786
F-78.88153
tp952
sS'23901'
p953
(F37.307946
F-78.40144
tp954
sS'23968'
p955
(F36.702863
F-78.51218
tp956
sS'243HH'
p957
(F36.792508
F-80.92778
tp958
sS'24375'
p959
(F36.790265
F-81.37541
tp960
sS'24347'
p961
(F36.958829
F-80.65995
tp962
sS'23887'
p963
(F36.563755
F-77.82652
tp964
sS'22041'
p965
(F38.849136
F-77.14081
tp966
sS'24646'
p967
(F37.14445
F-81.99735
tp968
sS'23518'
p969
(F36.916497
F-76.21796
tp970
sS'23701'
p971
(F36.810448
F-76.36811
tp972
sS'23510'
p973
(F36.852547
F-76.29028
tp974
sS'23047'
p975
(F37.855002
F-77.47011
tp976
sS'23045'
p977
(F37.426154
F-76.26844
tp978
sS'23043'
p979
(F37.550168
F-76.34327
tp980
sS'23040'
p981
(F37.522085
F-78.2553
tp982
sS'224XX'
p983
(F38.093045
F-77.27083
tp984
sS'24551'
p985
(F37.366744
F-79.29977
tp986
sS'24550'
p987
(F37.237928
F-79.28268
tp988
sS'24553'
p989
(F37.541726
F-78.80777
tp990
sS'24555'
p991
(F37.641788
F-79.45652
tp992
sS'24104'
p993
(F37.107479
F-79.53046
tp994
sS'24557'
p995
(F36.971021
F-79.31787
tp996
sS'24226'
p997
(F37.147222
F-82.34369
tp998
sS'24558'
p999
(F36.774635
F-78.93426
tp1000
sS'24105'
p1001
(F36.901524
F-80.5936
tp1002
sS'24225'
p1003
(F36.968491
F-82.1623
tp1004
sS'24224'
p1005
(F36.870051
F-82.27792
tp1006
sS'24258'
p1007
(F36.658518
F-82.42645
tp1008
sS'24256'
p1009
(F37.213189
F-82.29759
tp1010
sS'24348'
p1011
(F36.626454
F-81.16554
tp1012
sS'24250'
p1013
(F36.759614
F-82.59473
tp1014
sS'24251'
p1015
(F36.642027
F-82.58685
tp1016
sS'24221'
p1017
(F36.627827
F-82.96464
tp1018
sS'24220'
p1019
(F37.138489
F-82.25643
tp1020
sS'23604'
p1021
(F37.144943
F-76.58677
tp1022
sS'20169'
p1023
(F38.860551
F-77.64947
tp1024
sS'23606'
p1025
(F37.078196
F-76.49446
tp1026
sS'23607'
p1027
(F36.987151
F-76.4195
tp1028
sS'23601'
p1029
(F37.053346
F-76.45948
tp1030
sS'23602'
p1031
(F37.115698
F-76.5183
tp1032
sS'23603'
p1033
(F37.193712
F-76.57178
tp1034
sS'20164'
p1035
(F39.011909
F-77.39295
tp1036
sS'20165'
p1037
(F39.044855
F-77.38701
tp1038
sS'20166'
p1039
(F39.004276
F-77.43442
tp1040
sS'22922'
p1041
(F37.69474
F-78.93251
tp1042
sS'22923'
p1043
(F38.167465
F-78.3259
tp1044
sS'22920'
p1045
(F37.987812
F-78.79701
tp1046
sS'22924'
p1047
(F38.000289
F-78.72662
tp1048
sS'23702'
p1049
(F36.803981
F-76.32386
tp1050
sS'229HH'
p1051
(F37.714932
F-78.32382
tp1052
sS'23161'
p1053
(F37.701245
F-76.92919
tp1054
sS'23163'
p1055
(F37.357742
F-76.30136
tp1056
sS'23169'
p1057
(F37.599217
F-76.45876
tp1058
sS'23168'
p1059
(F37.403872
F-76.81744
tp1060
sS'23461'
p1061
(F36.795328
F-75.97768
tp1062
sS'22560'
p1063
(F37.916172
F-76.90656
tp1064
sS'23464'
p1065
(F36.799284
F-76.17767
tp1066
sS'22567'
p1067
(F38.233223
F-77.91258
tp1068
sS'24318'
p1069
(F36.982193
F-81.38945
tp1070
sS'224HH'
p1071
(F38.047642
F-76.93057
tp1072
sS'22939'
p1073
(F38.104457
F-78.97416
tp1074
sS'20119'
p1075
(F38.639283
F-77.63866
tp1076
sS'20118'
p1077
(F38.953454
F-77.74996
tp1078
sS'22938'
p1079
(F37.85583
F-78.77546
tp1080
sS'20115'
p1081
(F38.855848
F-77.88174
tp1082
sS'22642'
p1083
(F38.932178
F-78.06051
tp1084
sS'22641'
p1085
(F39.076317
F-78.39617
tp1086
sS'22640'
p1087
(F38.808303
F-78.13578
tp1088
sS'20111'
p1089
(F38.769697
F-77.44915
tp1090
sS'20110'
p1091
(F38.752269
F-77.47694
tp1092
sS'22645'
p1093
(F39.023035
F-78.2809
tp1094
sS'22644'
p1095
(F38.944011
F-78.48125
tp1096
sS'24314'
p1097
(F37.183901
F-81.17641
tp1098
sS'225XX'
p1099
(F38.121753
F-77.11808
tp1100
sS'24282'
p1101
(F36.805965
F-83.05467
tp1102
sS'24102'
p1103
(F36.838473
F-79.99093
tp1104
sS'24122'
p1105
(F37.413397
F-79.70789
tp1106
sS'24101'
p1107
(F37.180713
F-79.76536
tp1108
sS'22853'
p1109
(F38.641556
F-78.76258
tp1110
sS'22850'
p1111
(F38.553225
F-78.92206
tp1112
sS'22851'
p1113
(F38.567459
F-78.50696
tp1114
sS'24477'
p1115
(F38.01473
F-79.02733
tp1116
sS'24474'
p1117
(F37.805268
F-79.84752
tp1118
sS'24475'
p1119
(F37.9651
F-79.2357
tp1120
sS'24472'
p1121
(F37.936577
F-79.22828
tp1122
sS'24473'
p1123
(F37.912977
F-79.39906
tp1124
sS'24471'
p1125
(F38.310311
F-78.80409
tp1126
sS'24479'
p1127
(F38.151767
F-79.21998
tp1128
sS'22027'
p1129
(F38.893921
F-77.21976
tp1130
sS'22026'
p1131
(F38.582319
F-77.32722
tp1132
sS'23415'
p1133
(F37.973042
F-75.53045
tp1134
sS'242HH'
p1135
(F37.214021
F-82.37342
tp1136
sS'23417'
p1137
(F37.70973
F-75.76272
tp1138
sS'23416'
p1139
(F37.9268
F-75.55339
tp1140
sS'23943'
p1141
(F37.241732
F-78.4632
tp1142
sS'23410'
p1143
(F37.64682
F-75.73996
tp1144
sS'23413'
p1145
(F37.452186
F-75.84523
tp1146
sS'23418'
p1147
(F37.685447
F-75.71051
tp1148
sS'23850'
p1149
(F37.169066
F-77.74358
tp1150
sS'20186'
p1151
(F38.707135
F-77.8145
tp1152
sS'20187'
p1153
(F38.735202
F-77.73717
tp1154
sS'20184'
p1155
(F38.997904
F-77.87487
tp1156
sS'23868'
p1157
(F36.722176
F-77.81269
tp1158
sS'20180'
p1159
(F39.261906
F-77.64239
tp1160
sS'20181'
p1161
(F38.69835
F-77.57365
tp1162
sS'23866'
p1163
(F36.907991
F-76.89025
tp1164
sS'23867'
p1165
(F36.811276
F-77.47496
tp1166
sS'23860'
p1167
(F37.287869
F-77.29359
tp1168
sS'24605'
p1169
(F37.222548
F-81.3367
tp1170
sS'24604'
p1171
(F37.201022
F-81.53963
tp1172
sS'24607'
p1173
(F37.297387
F-82.27942
tp1174
sS'23944'
p1175
(F36.925375
F-78.11767
tp1176
sS'24601'
p1177
(F37.177549
F-81.6578
tp1178
sS'24603'
p1179
(F37.371119
F-82.1645
tp1180
sS'24602'
p1181
(F37.170062
F-81.64412
tp1182
sS'24589'
p1183
(F36.759749
F-78.78547
tp1184
sS'24609'
p1185
(F37.055512
F-81.76922
tp1186
sS'23942'
p1187
(F37.129269
F-78.30107
tp1188
sS'23917'
p1189
(F36.615944
F-78.3102
tp1190
sS'24210'
p1191
(F36.728639
F-82.00845
tp1192
sS'23947'
p1193
(F37.029877
F-78.4643
tp1194
sS'23304'
p1195
(F36.99497
F-76.56901
tp1196
sS'22733'
p1197
(F38.324175
F-78.05877
tp1198
sS'22732'
p1199
(F38.310141
F-78.20098
tp1200
sS'22731'
p1201
(F38.345179
F-78.26151
tp1202
sS'22730'
p1203
(F38.365699
F-78.18604
tp1204
sS'22737'
p1205
(F38.588409
F-77.98995
tp1206
sS'22736'
p1207
(F38.388311
F-77.68111
tp1208
sS'22735'
p1209
(F38.477063
F-78.17517
tp1210
sS'22734'
p1211
(F38.52916
F-77.80274
tp1212
sS'24218'
p1213
(F36.733931
F-83.0635
tp1214
sS'22738'
p1215
(F38.303414
F-78.28937
tp1216
sS'23093'
p1217
(F37.995103
F-78.04612
tp1218
sS'23092'
p1219
(F37.593059
F-76.50694
tp1220
sS'24211'
p1221
(F36.657812
F-81.96207
tp1222
sS'24352'
p1223
(F36.708515
F-80.52791
tp1224
sS'24351'
p1225
(F36.580074
F-80.76311
tp1226
sS'24350'
p1227
(F36.809933
F-80.99526
tp1228
sS'24354'
p1229
(F36.828526
F-81.53045
tp1230
sS'23521'
p1231
(F36.916397
F-76.1527
tp1232
sS'23523'
p1233
(F36.830936
F-76.27354
tp1234
sS'23138'
p1235
(F37.366838
F-76.29577
tp1236
sS'23139'
p1237
(F37.55563
F-77.90048
tp1238
sS'23298'
p1239
(F37.539694
F-77.42815
tp1240
sS'23130'
p1241
(F37.405038
F-76.27785
tp1242
sS'228HH'
p1243
(F38.330418
F-78.73876
tp1244
sS'23836'
p1245
(F37.343005
F-77.34604
tp1246
sS'240HH'
p1247
(F37.205649
F-80.5182
tp1248
sS'24504'
p1249
(F37.400275
F-79.12597
tp1250
sS'24502'
p1251
(F37.362109
F-79.21525
tp1252
sS'24503'
p1253
(F37.440641
F-79.20923
tp1254
sS'24501'
p1255
(F37.390209
F-79.16132
tp1256
sS'23002'
p1257
(F37.338511
F-77.95893
tp1258
sS'23001'
p1259
(F37.293165
F-76.41057
tp1260
sS'23004'
p1261
(F37.673369
F-78.38899
tp1262
sS'23005'
p1263
(F37.754254
F-77.47465
tp1264
sS'23009'
p1265
(F37.790757
F-77.17553
tp1266
sS'20151'
p1267
(F38.889111
F-77.4363
tp1268
sS'20152'
p1269
(F38.90371
F-77.5038
tp1270
sS'20155'
p1271
(F38.803732
F-77.62404
tp1272
sS'234HH'
p1273
(F36.979612
F-76.13474
tp1274
sS'20158'
p1275
(F39.137667
F-77.66186
tp1276
sS'23830'
p1277
(F37.01775
F-77.39475
tp1278
sS'22603'
p1279
(F39.267257
F-78.19396
tp1280
sS'22602'
p1281
(F39.158386
F-78.24758
tp1282
sS'22601'
p1283
(F39.179076
F-78.16653
tp1284
sS'22812'
p1285
(F38.398049
F-79.00071
tp1286
sS'24370'
p1287
(F36.893445
F-81.74825
tp1288
sS'22810'
p1289
(F38.81913
F-78.77149
tp1290
sS'22811'
p1291
(F38.797789
F-78.96672
tp1292
sS'23186'
p1293
(F37.270994
F-76.71722
tp1294
sS'23185'
p1295
(F37.256301
F-76.70024
tp1296
sS'22815'
p1297
(F38.619654
F-78.80513
tp1298
sS'23222'
p1299
(F37.573595
F-77.42504
tp1300
sS'23223'
p1301
(F37.544746
F-77.40085
tp1302
sS'23220'
p1303
(F37.549396
F-77.45739
tp1304
sS'23188'
p1305
(F37.322936
F-76.75793
tp1306
sS'23226'
p1307
(F37.581696
F-77.51709
tp1308
sS'23227'
p1309
(F37.606778
F-77.44775
tp1310
sS'23224'
p1311
(F37.505147
F-77.46101
tp1312
sS'23225'
p1313
(F37.51918
F-77.49851
tp1314
sS'22959'
p1315
(F37.935994
F-78.64088
tp1316
sS'22958'
p1317
(F37.905649
F-78.90273
tp1318
sS'22952'
p1319
(F37.969657
F-78.95712
tp1320
sS'22957'
p1321
(F38.221405
F-78.19026
tp1322
sS'22954'
p1323
(F37.790887
F-79.00334
tp1324
sS'24439'
p1325
(F37.997778
F-79.48004
tp1326
sS'23839'
p1327
(F37.079298
F-76.92155
tp1328
sS'24432'
p1329
(F38.178513
F-79.42701
tp1330
sS'24433'
p1331
(F38.443961
F-79.44072
tp1332
sS'24430'
p1333
(F38.085244
F-79.36209
tp1334
sS'23423'
p1335
(F37.549044
F-75.73237
tp1336
sS'24437'
p1337
(F38.212067
F-78.94563
tp1338
sS'235HH'
p1339
(F36.88398
F-76.27244
tp1340
sS'24435'
p1341
(F37.871126
F-79.29041
tp1342
sS'22101'
p1343
(F38.93276
F-77.1677
tp1344
sS'22102'
p1345
(F38.938664
F-77.22196
tp1346
sS'23149'
p1347
(F37.5787
F-76.60916
tp1348
sS'22454'
p1349
(F37.854791
F-76.81298
tp1350
sS'23148'
p1351
(F37.837177
F-77.05555
tp1352
sS'23356'
p1353
(F37.999025
F-75.41634
tp1354
sS'23357'
p1355
(F37.754497
F-75.67974
tp1356
sS'23354'
p1357
(F37.479588
F-75.90262
tp1358
sS'23824'
p1359
(F37.070975
F-77.98876
tp1360
sS'23350'
p1361
(F37.522269
F-75.86132
tp1362
sS'23827'
p1363
(F36.602472
F-77.20851
tp1364
sS'23451'
p1365
(F36.864788
F-76.00098
tp1366
sS'23829'
p1367
(F36.724498
F-77.21893
tp1368
sS'22511'
p1369
(F37.991772
F-76.48985
tp1370
sS'23452'
p1371
(F36.839209
F-76.09333
tp1372
sS'23455'
p1373
(F36.889797
F-76.1426
tp1374
sS'23454'
p1375
(F36.838398
F-76.02862
tp1376
sS'23358'
p1377
(F37.635833
F-75.86849
tp1378
sS'22514'
p1379
(F37.988674
F-77.29047
tp1380
sS'24078'
p1381
(F36.720217
F-79.91425
tp1382
sS'24079'
p1383
(F37.043459
F-80.14868
tp1384
sS'24176'
p1385
(F37.024494
F-79.69241
tp1386
sS'24175'
p1387
(F37.427597
F-79.90595
tp1388
sS'24174'
p1389
(F37.357587
F-79.66552
tp1390
sS'24072'
p1391
(F37.040036
F-80.2167
tp1392
sS'24073'
p1393
(F37.136013
F-80.41222
tp1394
sS'24070'
p1395
(F37.361962
F-80.19485
tp1396
sS'24076'
p1397
(F36.580514
F-80.4332
tp1398
sS'24077'
p1399
(F37.369313
F-79.90303
tp1400
sS'24649'
p1401
(F37.077291
F-81.91973
tp1402
sS'24533'
p1403
(F37.582488
F-78.93618
tp1404
sS'22211'
p1405
(F38.878215
F-77.06845
tp1406
sS'22213'
p1407
(F38.894457
F-77.16396
tp1408
sS'24641'
p1409
(F37.098588
F-81.80607
tp1410
sS'22193'
p1411
(F38.646375
F-77.34469
tp1412
sS'22192'
p1413
(F38.678451
F-77.30657
tp1414
sS'22191'
p1415
(F38.63275
F-77.26786
tp1416
sS'24055'
p1417
(F36.757893
F-80.00161
tp1418
sS'24382'
p1419
(F36.947446
F-81.09439
tp1420
sS'23890'
p1421
(F37.005989
F-77.09819
tp1422
sS'23893'
p1423
(F36.628802
F-77.92817
tp1424
sS'22079'
p1425
(F38.695915
F-77.20122
tp1426
sS'24319'
p1427
(F36.776534
F-81.65827
tp1428
sS'22172'
p1429
(F38.557527
F-77.35726
tp1430
sS'24317'
p1431
(F36.609475
F-80.67102
tp1432
sS'23323'
p1433
(F36.757815
F-76.3358
tp1434
sS'24315'
p1435
(F37.107412
F-81.0571
tp1436
sS'24066'
p1437
(F37.532991
F-79.68004
tp1438
sS'24313'
p1439
(F36.909335
F-80.80411
tp1440
sS'24312'
p1441
(F36.837699
F-80.85731
tp1442
sS'24311'
p1443
(F36.870607
F-81.40497
tp1444
sS'23322'
p1445
(F36.687543
F-76.22905
tp1446
sS'23857'
p1447
(F36.576549
F-77.88467
tp1448
sS'23856'
p1449
(F36.776189
F-77.71289
tp1450
sS'23851'
p1451
(F36.668255
F-76.93945
tp1452
sS'23321'
p1453
(F36.826239
F-76.41524
tp1454
sS'23915'
p1455
(F36.694531
F-78.28794
tp1456
sS'23320'
p1457
(F36.761698
F-76.24511
tp1458
sS'22580'
p1459
(F38.095772
F-77.44404
tp1460
sS'24340'
p1461
(F36.772376
F-81.7742
tp1462
sS'23898'
p1463
(F36.836423
F-76.83731
tp1464
sS'24606'
p1465
(F37.28526
F-81.38993
tp1466
sS'24639'
p1467
(F37.136584
F-81.89068
tp1468
sS'23079'
p1469
(F37.748645
F-76.66735
tp1470
sS'23072'
p1471
(F37.288999
F-76.47393
tp1472
sS'23071'
p1473
(F37.533471
F-76.4609
tp1474
sS'23070'
p1475
(F37.551549
F-76.39294
tp1476
sS'23076'
p1477
(F37.475132
F-76.31316
tp1478
sS'23075'
p1479
(F37.543595
F-77.32339
tp1480
sS'24540'
p1481
(F36.622638
F-79.39998
tp1482
sS'24541'
p1483
(F36.581085
F-79.45027
tp1484
sS'23480'
p1485
(F37.605335
F-75.69088
tp1486
sS'24549'
p1487
(F36.710985
F-79.48517
tp1488
sS'24380'
p1489
(F36.853525
F-80.52024
tp1490
sS'24381'
p1491
(F36.714663
F-80.82602
tp1492
sS'24269'
p1493
(F37.103304
F-82.37613
tp1494
sS'24637'
p1495
(F37.076801
F-81.70519
tp1496
sS'23894'
p1497
(F37.127935
F-77.83918
tp1498
sS'23462'
p1499
(F36.839648
F-76.15177
tp1500
sS'24263'
p1501
(F36.687716
F-83.15587
tp1502
sS'24260'
p1503
(F37.02264
F-81.99859
tp1504
sS'24089'
p1505
(F36.70487
F-79.95681
tp1506
sS'24265'
p1507
(F36.851769
F-82.93593
tp1508
sS'24631'
p1509
(F37.223011
F-82.00538
tp1510
sS'24088'
p1511
(F36.901203
F-80.0715
tp1512
sS'24216'
p1513
(F36.919476
F-82.78974
tp1514
sS'24217'
p1515
(F37.082275
F-82.18978
tp1516
sS'23897'
p1517
(F36.828831
F-77.28288
tp1518
sS'24112'
p1519
(F36.696264
F-79.86879
tp1520
sS'24184'
p1521
(F37.068743
F-79.74911
tp1522
sS'24148'
p1523
(F36.595224
F-79.87353
tp1524
sS'24215'
p1525
(F36.921924
F-82.79644
tp1526
sS'24266'
p1527
(F36.876177
F-82.11083
tp1528
sS'24128'
p1529
(F37.325758
F-80.47021
tp1530
sS'24082'
p1531
(F36.625817
F-80.13542
tp1532
sS'22911'
p1533
(F38.07735
F-78.42042
tp1534
sS'24219'
p1535
(F36.851953
F-82.77056
tp1536
sS'24149'
p1537
(F37.011934
F-80.41897
tp1538
sS'24464'
p1539
(F37.897702
F-79.08939
tp1540
sS'24087'
p1541
(F37.218668
F-80.2335
tp1542
sS'24086'
p1543
(F37.287326
F-80.62194
tp1544
sS'24020'
p1545
(F37.357149
F-79.94541
tp1546
sS'23176'
p1547
(F37.571789
F-76.41631
tp1548
sS'23177'
p1549
(F37.728152
F-76.99901
tp1550
sS'23175'
p1551
(F37.648536
F-76.59872
tp1552
sS'23178'
p1553
(F37.400287
F-76.46089
tp1554
sS'22654'
p1555
(F39.04494
F-78.47377
tp1556
sS'22655'
p1557
(F39.07814
F-78.20713
tp1558
sS'22656'
p1559
(F39.230131
F-78.09992
tp1560
sS'22657'
p1561
(F39.00127
F-78.36485
tp1562
sS'22650'
p1563
(F38.76592
F-78.36545
tp1564
sS'22652'
p1565
(F38.823987
F-78.4531
tp1566
sS'22554'
p1567
(F38.460395
F-77.43266
tp1568
sS'22553'
p1569
(F38.207275
F-77.64378
tp1570
sS'23919'
p1571
(F36.567521
F-78.12176
tp1572
sS'24137'
p1573
(F36.947422
F-79.63536
tp1574
sS'24136'
p1575
(F37.31803
F-80.62267
tp1576
sS'24134'
p1577
(F37.291252
F-80.73601
tp1578
sS'24133'
p1579
(F36.677978
F-80.13511
tp1580
sS'23708'
p1581
(F36.846562
F-76.30803
tp1582
sS'24131'
p1583
(F37.562902
F-80.2538
tp1584
sS'20109'
p1585
(F38.790202
F-77.51294
tp1586
sS'20106'
p1587
(F38.683116
F-77.99031
tp1588
sS'23704'
p1589
(F36.830748
F-76.31369
tp1590
sS'23310'
p1591
(F37.26252
F-75.97104
tp1592
sS'20105'
p1593
(F38.964054
F-77.60878
tp1594
sS'23316'
p1595
(F37.284061
F-75.96909
tp1596
sS'23314'
p1597
(F36.940626
F-76.5378
tp1598
sS'23315'
p1599
(F36.740632
F-76.84517
tp1600
sS'22980'
p1601
(F38.076547
F-78.89839
tp1602
sS'22989'
p1603
(F38.292221
F-78.11865
tp1604
sS'24578'
p1605
(F37.650711
F-79.55269
tp1606
sS'22311'
p1607
(F38.837312
F-77.12064
tp1608
sS'22310'
p1609
(F38.782013
F-77.12125
tp1610
sS'24441'
p1611
(F38.255747
F-78.8242
tp1612
sS'22312'
p1613
(F38.817362
F-77.1537
tp1614
sS'22315'
p1615
(F38.757924
F-77.15284
tp1616
sS'22314'
p1617
(F38.806163
F-77.05139
tp1618
sS'24445'
p1619
(F37.970734
F-79.89283
tp1620
sS'23389'
p1621
(F37.661513
F-75.8315
tp1622
sS'24448'
p1623
(F37.797214
F-79.79002
tp1624
sS'24327'
p1625
(F36.773659
F-81.82771
tp1626
sS'22030'
p1627
(F38.846212
F-77.32787
tp1628
sS'22031'
p1629
(F38.859675
F-77.26167
tp1630
sS'22032'
p1631
(F38.821753
F-77.29293
tp1632
sS'22033'
p1633
(F38.874879
F-77.38642
tp1634
sS'22039'
p1635
(F38.760747
F-77.31684
tp1636
sS'24594'
p1637
(F36.635902
F-79.1968
tp1638
sS'23950'
p1639
(F36.678507
F-78.08098
tp1640
sS'23407'
p1641
(F37.848467
F-75.55559
tp1642
sS'23404'
p1643
(F37.635838
F-75.66642
tp1644
sS'23405'
p1645
(F37.425567
F-75.93117
tp1646
sS'23954'
p1647
(F37.097705
F-78.37823
tp1648
sS'23401'
p1649
(F37.61686
F-75.76512
tp1650
sS'23958'
p1651
(F37.264896
F-78.66558
tp1652
sS'23959'
p1653
(F37.094313
F-78.77182
tp1654
sS'22427'
p1655
(F38.042346
F-77.30833
tp1656
sS'22134'
p1657
(F38.503139
F-77.33372
tp1658
sS'23409'
p1659
(F37.859953
F-75.62995
tp1660
sS'24595'
p1661
(F37.556248
F-79.08249
tp1662
sS'24301'
p1663
(F37.053297
F-80.7728
tp1664
sS'24185'
p1665
(F36.806528
F-80.26895
tp1666
sS'24328'
p1667
(F36.659171
F-80.70387
tp1668
sS'24614'
p1669
(F37.296213
F-82.05775
tp1670
sS'24612'
p1671
(F37.091572
F-81.84119
tp1672
sS'23192'
p1673
(F37.813901
F-77.68952
tp1674
sS'24458'
p1675
(F38.322663
F-79.54418
tp1676
sS'24459'
p1677
(F38.042173
F-79.28175
tp1678
sS'24593'
p1679
(F37.320709
F-78.91071
tp1680
sS'23395'
p1681
(F37.95715
F-75.45296
tp1682
sS'22044'
p1683
(F38.859645
F-77.15328
tp1684
sS'22046'
p1685
(F38.886311
F-77.18098
tp1686
sS'22728'
p1687
(F38.587503
F-77.70952
tp1688
sS'22729'
p1689
(F38.373645
F-78.0165
tp1690
sS'22043'
p1691
(F38.901311
F-77.19777
tp1692
sS'22042'
p1693
(F38.864669
F-77.18781
tp1694
sS'22724'
p1695
(F38.630345
F-77.89777
tp1696
sS'220HH'
p1697
(F38.671589
F-77.24517
tp1698
sS'22726'
p1699
(F38.411845
F-77.82208
tp1700
sS'22727'
p1701
(F38.393351
F-78.28737
tp1702
sS'22720'
p1703
(F38.474222
F-77.64361
tp1704
sS'22722'
p1705
(F38.452043
F-78.24197
tp1706
sS'22723'
p1707
(F38.331957
F-78.3774
tp1708
sS'23924'
p1709
(F36.806422
F-78.46048
tp1710
sS'23927'
p1711
(F36.61665
F-78.54018
tp1712
sS'24457'
p1713
(F37.802424
F-79.86351
tp1714
sS'23921'
p1715
(F37.581656
F-78.62058
tp1716
sS'23920'
p1717
(F36.732859
F-77.99591
tp1718
sS'23923'
p1719
(F37.074876
F-78.63263
tp1720
sS'23922'
p1721
(F37.191053
F-78.2117
tp1722
sS'24599'
p1723
(F37.638783
F-78.71934
tp1724
sS'24132'
p1725
(F37.210996
F-80.62751
tp1726
sS'24280'
p1727
(F36.954936
F-81.94252
tp1728
sS'23109'
p1729
(F37.43704
F-76.30724
tp1730
sS'23108'
p1731
(F37.642543
F-76.73554
tp1732
sS'24590'
p1733
(F37.806508
F-78.48134
tp1734
sS'23103'
p1735
(F37.639354
F-77.72841
tp1736
sS'23102'
p1737
(F37.712894
F-77.82379
tp1738
sS'23106'
p1739
(F37.704693
F-77.20342
tp1740
sS'23228'
p1741
(F37.621745
F-77.48896
tp1742
sS'226HH'
p1743
(F38.949944
F-78.18805
tp1744
sS'24094'
p1745
(F37.427111
F-80.55227
tp1746
sS'24539'
p1747
(F36.861612
F-78.91187
tp1748
sS'24538'
p1749
(F37.343394
F-78.96433
tp1750
sS'229XX'
p1751
(F38.389342
F-78.5125
tp1752
sS'24531'
p1753
(F36.836822
F-79.45193
tp1754
sS'24530'
p1755
(F36.807043
F-79.61864
tp1756
sS'23229'
p1757
(F37.593546
F-77.56271
tp1758
sS'24536'
p1759
(F37.486603
F-79.30501
tp1760
sS'24534'
p1761
(F36.864697
F-78.76019
tp1762
sS'23039'
p1763
(F37.643406
F-77.80709
tp1764
sS'23038'
p1765
(F37.758949
F-78.14009
tp1766
sS'23035'
p1767
(F37.514774
F-76.37543
tp1768
sS'23032'
p1769
(F37.674655
F-76.68104
tp1770
sS'23030'
p1771
(F37.342306
F-77.0731
tp1772
sS'20143'
p1773
(F38.858613
F-77.56391
tp1774
sS'20140'
p1775
(F38.918124
F-77.87243
tp1776
sS'20141'
p1777
(F39.119917
F-77.77328
tp1778
sS'20147'
p1779
(F39.041978
F-77.49064
tp1780
sS'20144'
p1781
(F38.918435
F-77.9255
tp1782
sS'23872'
p1783
(F36.993498
F-77.74687
tp1784
sS'22610'
p1785
(F38.822506
F-78.27368
tp1786
sS'22611'
p1787
(F39.156378
F-77.97857
tp1788
sS'20148'
p1789
(F39.020637
F-77.52276
tp1790
sS'237HH'
p1791
(F36.841965
F-76.32265
tp1792
sS'23219'
p1793
(F37.541046
F-77.43536
tp1794
sS'22946'
p1795
(F37.855103
F-78.56162
tp1796
sS'22947'
p1797
(F38.025346
F-78.32925
tp1798
sS'22940'
p1799
(F38.197583
F-78.59304
tp1800
sS'24285'
p1801
(F36.953228
F-82.79025
tp1802
sS'22942'
p1803
(F38.125214
F-78.197
tp1804
sS'22943'
p1805
(F38.039928
F-78.75894
tp1806
sS'22827'
p1807
(F38.404364
F-78.62907
tp1808
sS'22824'
p1809
(F38.828628
F-78.60964
tp1810
sS'22948'
p1811
(F38.349795
F-78.11747
tp1812
sS'22949'
p1813
(F37.780882
F-78.89239
tp1814
sS'22821'
p1815
(F38.436873
F-78.99039
tp1816
sS'22820'
p1817
(F38.725738
F-79.01957
tp1818
sS'24401'
p1819
(F38.146216
F-79.07625
tp1820
sS'24562'
p1821
(F37.715293
F-78.64175
tp1822
sS'238HH'
p1823
(F37.119188
F-77.10068
tp1824
sS'23421'
p1825
(F37.780966
F-75.64895
tp1826
sS'230HH'
p1827
(F37.551254
F-76.88153
tp1828
sS'23437'
p1829
(F36.642645
F-76.82272
tp1830
sS'23970'
p1831
(F36.733874
F-78.17287
tp1832
sS'23436'
p1833
(F36.894736
F-76.51281
tp1834
s.